; Function Attrs: nounwind uwtable
define ptr @l_Array_forIn_x27Unsafe_loop___at_Lean_Meta_Grind_propagateBetaEqs___spec__2___lambda__1___boxed(ptr noundef %0, ptr noundef %1, ptr noundef %2, ptr noundef %3, ptr noundef %4, ptr noundef %5, ptr noundef %6, ptr noundef %7, ptr noundef %8, ptr noundef %9, ptr noundef %10, ptr noundef %11, ptr noundef %12) local_unnamed_addr #0 {
  %14 = tail call ptr @l_Array_forIn_x27Unsafe_loop___at_Lean_Meta_Grind_propagateBetaEqs___spec__2___lambda__1(ptr noundef %0, ptr noundef %1, ptr noundef %2, ptr poison, ptr noundef %4, ptr noundef %5, ptr noundef %6, ptr noundef %7, ptr noundef %8, ptr noundef %9, ptr noundef %10, ptr noundef %11, ptr noundef %12)
  %15 = ptrtoint ptr %7 to i64
  %16 = and i64 %15, 1
  %.not = icmp eq i64 %16, 0
  br i1 %.not, label %17, label %lean_dec.exit24

17:                                               ; preds = %13
  %18 = load i32, ptr %7, align 4, !tbaa !8
  %19 = icmp sgt i32 %18, 1
  br i1 %19, label %20, label %22, !prof !11

20:                                               ; preds = %17
  %21 = add nsw i32 %18, -1
  store i32 %21, ptr %7, align 4, !tbaa !8
  br label %lean_dec.exit24

22:                                               ; preds = %17
  %.not.i = icmp eq i32 %18, 0
  br i1 %.not.i, label %lean_dec.exit24, label %23

23:                                               ; preds = %22
  tail call void @lean_dec_ref_cold(ptr noundef nonnull %7) #5
  br label %lean_dec.exit24

lean_dec.exit24:                                  ; preds = %23, %22, %20, %13
  %24 = ptrtoint ptr %6 to i64
  %25 = and i64 %24, 1
  %.not35 = icmp eq i64 %25, 0
  br i1 %.not35, label %26, label %lean_dec.exit23

26:                                               ; preds = %lean_dec.exit24
  %27 = load i32, ptr %6, align 4, !tbaa !8
  %28 = icmp sgt i32 %27, 1
  br i1 %28, label %29, label %31, !prof !11

29:                                               ; preds = %26
  %30 = add nsw i32 %27, -1
  store i32 %30, ptr %6, align 4, !tbaa !8
  br label %lean_dec.exit23

31:                                               ; preds = %26
  %.not.i25 = icmp eq i32 %27, 0
  br i1 %.not.i25, label %lean_dec.exit23, label %32

32:                                               ; preds = %31
  tail call void @lean_dec_ref_cold(ptr noundef nonnull %6) #5
  br label %lean_dec.exit23

lean_dec.exit23:                                  ; preds = %32, %31, %29, %lean_dec.exit24
  %33 = ptrtoint ptr %5 to i64
  %34 = and i64 %33, 1
  %.not36 = icmp eq i64 %34, 0
  br i1 %.not36, label %35, label %lean_dec.exit22

35:                                               ; preds = %lean_dec.exit23
  %36 = load i32, ptr %5, align 4, !tbaa !8
  %37 = icmp sgt i32 %36, 1
  br i1 %37, label %38, label %40, !prof !11

38:                                               ; preds = %35
  %39 = add nsw i32 %36, -1
  store i32 %39, ptr %5, align 4, !tbaa !8
  br label %lean_dec.exit22

40:                                               ; preds = %35
  %.not.i27 = icmp eq i32 %36, 0
  br i1 %.not.i27, label %lean_dec.exit22, label %41

41:                                               ; preds = %40
  tail call void @lean_dec_ref_cold(ptr noundef nonnull %5) #5
  br label %lean_dec.exit22

lean_dec.exit22:                                  ; preds = %41, %40, %38, %lean_dec.exit23
  %42 = ptrtoint ptr %4 to i64
  %43 = and i64 %42, 1
  %.not37 = icmp eq i64 %43, 0
  br i1 %.not37, label %44, label %lean_dec.exit21

44:                                               ; preds = %lean_dec.exit22
  %45 = load i32, ptr %4, align 4, !tbaa !8
  %46 = icmp sgt i32 %45, 1
  br i1 %46, label %47, label %49, !prof !11

47:                                               ; preds = %44
  %48 = add nsw i32 %45, -1
  store i32 %48, ptr %4, align 4, !tbaa !8
  br label %lean_dec.exit21

49:                                               ; preds = %44
  %.not.i29 = icmp eq i32 %45, 0
  br i1 %.not.i29, label %lean_dec.exit21, label %50

50:                                               ; preds = %49
  tail call void @lean_dec_ref_cold(ptr noundef nonnull %4) #5
  br label %lean_dec.exit21

lean_dec.exit21:                                  ; preds = %50, %49, %47, %lean_dec.exit22
  %51 = ptrtoint ptr %3 to i64
  %52 = and i64 %51, 1
  %.not38 = icmp eq i64 %52, 0
  br i1 %.not38, label %53, label %lean_dec.exit20

53:                                               ; preds = %lean_dec.exit21
  %54 = load i32, ptr %3, align 4, !tbaa !8
  %55 = icmp sgt i32 %54, 1
  br i1 %55, label %56, label %58, !prof !11

56:                                               ; preds = %53
  %57 = add nsw i32 %54, -1
  store i32 %57, ptr %3, align 4, !tbaa !8
  br label %lean_dec.exit20

58:                                               ; preds = %53
  %.not.i31 = icmp eq i32 %54, 0
  br i1 %.not.i31, label %lean_dec.exit20, label %59

59:                                               ; preds = %58
  tail call void @lean_dec_ref_cold(ptr noundef nonnull %3) #5
  br label %lean_dec.exit20

lean_dec.exit20:                                  ; preds = %59, %58, %56, %lean_dec.exit21
  %60 = ptrtoint ptr %0 to i64
  %61 = and i64 %60, 1
  %.not39 = icmp eq i64 %61, 0
  br i1 %.not39, label %62, label %lean_dec.exit

62:                                               ; preds = %lean_dec.exit20
  %63 = load i32, ptr %0, align 4, !tbaa !8
  %64 = icmp sgt i32 %63, 1
  br i1 %64, label %65, label %67, !prof !11

65:                                               ; preds = %62
  %66 = add nsw i32 %63, -1
  store i32 %66, ptr %0, align 4, !tbaa !8
  br label %lean_dec.exit

67:                                               ; preds = %62
  %.not.i33 = icmp eq i32 %63, 0
  br i1 %.not.i33, label %lean_dec.exit, label %68

68:                                               ; preds = %67
  tail call void @lean_dec_ref_cold(ptr noundef nonnull %0) #5
  br label %lean_dec.exit

lean_dec.exit:                                    ; preds = %68, %67, %65, %lean_dec.exit20
  ret ptr %14
}